; Function Attrs: mustprogress nofree nounwind willreturn memory(read) uwtable
define dso_local noundef ptr @_ZNK5clang17CXXMemberCallExpr25getImplicitObjectArgumentEv(ptr noundef nonnull readonly align 8 captures(none) dereferenceable(24) %0) local_unnamed_addr #6 align 2 {
  %2 = load i32, ptr %0, align 8
  %3 = lshr i32 %2, 24
  %4 = zext nneg i32 %3 to i64
  %5 = getelementptr inbounds nuw i8, ptr %0, i64 %4
  %6 = load ptr, ptr %5, align 8
  %7 = tail call noundef ptr @_ZN5clang4Expr12IgnoreParensEv(ptr noundef nonnull align 8 dereferenceable(16) %6) #15
  %8 = load i8, ptr %7, align 8
  %.not = icmp eq i8 %8, 46
  br i1 %.not, label %.sink.split, label %9

9:                                                ; preds = %1
  %10 = and i8 %8, -2
  %spec.select.i.i.i.i.i.i.i.i.not = icmp eq i8 %10, 118
  br i1 %spec.select.i.i.i.i.i.i.i.i.not, label %11, label %16

11:                                               ; preds = %9
  %12 = load i32, ptr %7, align 8
  %13 = and i32 %12, 16252928
  %switch = icmp eq i32 %13, 0
  br i1 %switch, label %.sink.split, label %16

.sink.split:                                      ; preds = %11, %1
  %14 = getelementptr inbounds nuw i8, ptr %7, i64 16
  %15 = load ptr, ptr %14, align 8
  br label %16

16:                                               ; preds = %.sink.split, %11, %9
  %.0 = phi ptr [ null, %9 ], [ null, %11 ], [ %15, %.sink.split ]
  ret ptr %.0
}